target datalayout = "e-m:e-p270:32:32-p271:32:32-p272:64:64-i64:64-i128:128-f80:128-n8:16:32:64-S128"
target triple = "x86_64-pc-linux-gnu"

%"struct.pkpy::StrName" = type { i16 }
%"struct.pkpy::FastLocals" = type { ptr, ptr }
%"class.std::__shared_count" = type { ptr }
%"class.std::shared_ptr.22" = type { %"class.std::__shared_ptr.23" }
%"class.std::__shared_ptr.23" = type { ptr, %"class.std::__shared_count" }
%"struct.pkpy::Frame" = type { i32, i32, ptr, ptr, ptr, ptr, %"struct.pkpy::FastLocals" }
%"struct.pkpy::Py_" = type { %"struct.pkpy::PyObject", %"struct.pkpy::Function" }
%"struct.pkpy::PyObject" = type { ptr, i8, i8, %"struct.pkpy::Type", ptr }
%"struct.pkpy::Type" = type { i16 }
%"struct.pkpy::Function" = type { %"class.std::shared_ptr.25", ptr, ptr, %"class.std::shared_ptr.22" }
%"class.std::shared_ptr.25" = type { %"class.std::__shared_ptr.26" }
%"class.std::__shared_ptr.26" = type { ptr, %"class.std::__shared_count" }
%"struct.pkpy::NameDictImpl.28" = type { %union.anon.29 }
%union.anon.29 = type { %"struct.pkpy::SmallNameDict.30" }
%"struct.pkpy::SmallNameDict.30" = type { i8, i16, [8 x %"struct.pkpy::StrName"], [8 x ptr] }
%"struct.pkpy::LargeNameDict.31" = type { i8, float, i16, i16, i16, i16, ptr }
%"struct.pkpy::NameDictItem.42" = type { %"struct.pkpy::StrName", ptr }

; Function Attrs: mustprogress nounwind uwtable
define linkonce_odr noundef zeroext i1 @_ZNK4pkpy7StrName5emptyEv(ptr noundef nonnull align 2 dereferenceable(2) %0) #6 comdat align 2 {
  %2 = alloca ptr, align 8
  store ptr %0, ptr %2, align 8
  %3 = load ptr, ptr %2, align 8
  %4 = getelementptr inbounds %"struct.pkpy::StrName", ptr %3, i32 0, i32 0
  %5 = load i16, ptr %4, align 2
  %6 = zext i16 %5 to i32
  %7 = icmp eq i32 %6, 0
  ret i1 %7
}

; Function Attrs: mustprogress nounwind uwtable
define linkonce_odr noundef ptr @_ZN4pkpy21default_invalid_valueIPNS_8PyObjectEEET_v() #6 comdat {
  ret ptr null
}

; Function Attrs: mustprogress nounwind uwtable
define linkonce_odr noundef zeroext i1 @_ZNK4pkpy7StrNameeqERKS0_(ptr noundef nonnull align 2 dereferenceable(2) %0, ptr noundef nonnull align 2 dereferenceable(2) %1) #6 comdat align 2 {
  %3 = alloca ptr, align 8
  %4 = alloca ptr, align 8
  store ptr %0, ptr %3, align 8
  store ptr %1, ptr %4, align 8
  %5 = load ptr, ptr %3, align 8
  %6 = getelementptr inbounds %"struct.pkpy::StrName", ptr %5, i32 0, i32 0
  %7 = load i16, ptr %6, align 2
  %8 = zext i16 %7 to i32
  %9 = load ptr, ptr %4, align 8
  %10 = getelementptr inbounds %"struct.pkpy::StrName", ptr %9, i32 0, i32 0
  %11 = load i16, ptr %10, align 2
  %12 = zext i16 %11 to i32
  %13 = icmp eq i32 %8, %12
  ret i1 %13
}

; Function Attrs: mustprogress nounwind uwtable
define linkonce_odr noundef ptr @_ZNKSt12__shared_ptrIN4pkpy12NameDictImplIPNS0_8PyObjectEEELN9__gnu_cxx12_Lock_policyE2EE3getEv(ptr noundef nonnull align 8 dereferenceable(16) %0) #6 comdat align 2 {
  %2 = alloca ptr, align 8
  store ptr %0, ptr %2, align 8
  %3 = load ptr, ptr %2, align 8
  %4 = getelementptr inbounds %"class.std::__shared_ptr.23", ptr %3, i32 0, i32 0
  %5 = load ptr, ptr %4, align 8
  ret ptr %5
}

; Function Attrs: mustprogress nounwind uwtable
define linkonce_odr noundef ptr @_ZNK4pkpy13LargeNameDictIPNS_8PyObjectEE7try_getENS_7StrNameE(ptr noundef nonnull align 8 dereferenceable(24) %0, i16 %1) #6 comdat align 2 {
  %3 = alloca ptr, align 8
  %4 = alloca %"struct.pkpy::StrName", align 2
  %5 = alloca ptr, align 8
  %6 = alloca i8, align 1
  %7 = alloca i16, align 2
  %8 = getelementptr inbounds %"struct.pkpy::StrName", ptr %4, i32 0, i32 0
  store i16 %1, ptr %8, align 2
  store ptr %0, ptr %5, align 8
  %9 = load ptr, ptr %5, align 8
  store i8 0, ptr %6, align 1
  %10 = getelementptr inbounds %"struct.pkpy::StrName", ptr %4, i32 0, i32 0
  %11 = load i16, ptr %10, align 2
  %12 = zext i16 %11 to i32
  %13 = getelementptr inbounds %"struct.pkpy::LargeNameDict.31", ptr %9, i32 0, i32 5
  %14 = load i16, ptr %13, align 2
  %15 = zext i16 %14 to i32
  %16 = and i32 %12, %15
  %17 = trunc i32 %16 to i16
  store i16 %17, ptr %7, align 2
  br label %18

18:                                               ; preds = %36, %2
  %19 = getelementptr inbounds %"struct.pkpy::LargeNameDict.31", ptr %9, i32 0, i32 6
  %20 = load ptr, ptr %19, align 8
  %21 = load i16, ptr %7, align 2
  %22 = zext i16 %21 to i64
  %23 = getelementptr inbounds %"struct.pkpy::NameDictItem.42", ptr %20, i64 %22
  %24 = getelementptr inbounds %"struct.pkpy::NameDictItem.42", ptr %23, i32 0, i32 0
  %25 = call noundef zeroext i1 @_ZNK4pkpy7StrName5emptyEv(ptr noundef nonnull align 2 dereferenceable(2) %24)
  %26 = xor i1 %25, true
  br i1 %26, label %27, label %45

27:                                               ; preds = %18
  %28 = getelementptr inbounds %"struct.pkpy::LargeNameDict.31", ptr %9, i32 0, i32 6
  %29 = load ptr, ptr %28, align 8
  %30 = load i16, ptr %7, align 2
  %31 = zext i16 %30 to i64
  %32 = getelementptr inbounds %"struct.pkpy::NameDictItem.42", ptr %29, i64 %31
  %33 = getelementptr inbounds %"struct.pkpy::NameDictItem.42", ptr %32, i32 0, i32 0
  %34 = call noundef zeroext i1 @_ZNK4pkpy7StrNameeqERKS0_(ptr noundef nonnull align 2 dereferenceable(2) %33, ptr noundef nonnull align 2 dereferenceable(2) %4) #3
  br i1 %34, label %35, label %36

35:                                               ; preds = %27
  store i8 1, ptr %6, align 1
  br label %45

36:                                               ; preds = %27
  %37 = load i16, ptr %7, align 2
  %38 = zext i16 %37 to i32
  %39 = add nsw i32 %38, 1
  %40 = getelementptr inbounds %"struct.pkpy::LargeNameDict.31", ptr %9, i32 0, i32 5
  %41 = load i16, ptr %40, align 2
  %42 = zext i16 %41 to i32
  %43 = and i32 %39, %42
  %44 = trunc i32 %43 to i16
  store i16 %44, ptr %7, align 2
  br label %18, !llvm.loop !22

45:                                               ; preds = %35, %18
  %46 = load i8, ptr %6, align 1
  %47 = trunc i8 %46 to i1
  br i1 %47, label %50, label %48

48:                                               ; preds = %45
  %49 = call noundef ptr @_ZN4pkpy21default_invalid_valueIPNS_8PyObjectEEET_v()
  store ptr %49, ptr %3, align 8
  br label %58

50:                                               ; preds = %45
  %51 = getelementptr inbounds %"struct.pkpy::LargeNameDict.31", ptr %9, i32 0, i32 6
  %52 = load ptr, ptr %51, align 8
  %53 = load i16, ptr %7, align 2
  %54 = zext i16 %53 to i64
  %55 = getelementptr inbounds %"struct.pkpy::NameDictItem.42", ptr %52, i64 %54
  %56 = getelementptr inbounds %"struct.pkpy::NameDictItem.42", ptr %55, i32 0, i32 1
  %57 = load ptr, ptr %56, align 8
  store ptr %57, ptr %3, align 8
  br label %58

58:                                               ; preds = %50, %48
  %59 = load ptr, ptr %3, align 8
  ret ptr %59
}

; Function Attrs: mustprogress uwtable
define linkonce_odr noundef ptr @_ZNK4pkpy13SmallNameDictIPNS_8PyObjectEE7try_getENS_7StrNameE(ptr noundef nonnull align 8 dereferenceable(88) %0, i16 %1) #4 comdat align 2 {
  %3 = alloca ptr, align 8
  %4 = alloca %"struct.pkpy::StrName", align 2
  %5 = alloca ptr, align 8
  %6 = alloca i32, align 4
  %7 = getelementptr inbounds %"struct.pkpy::StrName", ptr %4, i32 0, i32 0
  store i16 %1, ptr %7, align 2
  store ptr %0, ptr %5, align 8
  %8 = load ptr, ptr %5, align 8
  store i32 0, ptr %6, align 4
  br label %9

9:                                                ; preds = %25, %2
  %10 = load i32, ptr %6, align 4
  %11 = icmp slt i32 %10, 8
  br i1 %11, label %12, label %28

12:                                               ; preds = %9
  %13 = getelementptr inbounds %"struct.pkpy::SmallNameDict.30", ptr %8, i32 0, i32 2
  %14 = load i32, ptr %6, align 4
  %15 = sext i32 %14 to i64
  %16 = getelementptr inbounds [8 x %"struct.pkpy::StrName"], ptr %13, i64 0, i64 %15
  %17 = call noundef zeroext i1 @_ZNK4pkpy7StrNameeqERKS0_(ptr noundef nonnull align 2 dereferenceable(2) %16, ptr noundef nonnull align 2 dereferenceable(2) %4) #3
  br i1 %17, label %18, label %24

18:                                               ; preds = %12
  %19 = getelementptr inbounds %"struct.pkpy::SmallNameDict.30", ptr %8, i32 0, i32 3
  %20 = load i32, ptr %6, align 4
  %21 = sext i32 %20 to i64
  %22 = getelementptr inbounds [8 x ptr], ptr %19, i64 0, i64 %21
  %23 = load ptr, ptr %22, align 8
  store ptr %23, ptr %3, align 8
  br label %30

24:                                               ; preds = %12
  br label %25

25:                                               ; preds = %24
  %26 = load i32, ptr %6, align 4
  %27 = add nsw i32 %26, 1
  store i32 %27, ptr %6, align 4
  br label %9, !llvm.loop !21

28:                                               ; preds = %9
  %29 = call noundef ptr @_ZN4pkpy21default_invalid_valueIPNS_8PyObjectEEET_v()
  store ptr %29, ptr %3, align 8
  br label %30

30:                                               ; preds = %28, %18
  %31 = load ptr, ptr %3, align 8
  ret ptr %31
}

; Function Attrs: mustprogress nounwind uwtable
define linkonce_odr noundef zeroext i1 @_ZNK4pkpy12NameDictImplIPNS_8PyObjectEE8is_smallEv(ptr noundef nonnull align 8 dereferenceable(88) %0) #6 comdat align 2 {
  %2 = alloca ptr, align 8
  %3 = alloca ptr, align 8
  store ptr %0, ptr %2, align 8
  %4 = load ptr, ptr %2, align 8
  store ptr %4, ptr %3, align 8
  %5 = load ptr, ptr %3, align 8
  %6 = load i8, ptr %5, align 1
  %7 = trunc i8 %6 to i1
  ret i1 %7
}

; Function Attrs: mustprogress nounwind uwtable
define linkonce_odr noundef ptr @_ZNKSt19__shared_ptr_accessIN4pkpy12NameDictImplIPNS0_8PyObjectEEELN9__gnu_cxx12_Lock_policyE2ELb0ELb0EE6_M_getEv(ptr noundef nonnull align 1 dereferenceable(1) %0) #6 comdat align 2 {
  %2 = alloca ptr, align 8
  store ptr %0, ptr %2, align 8
  %3 = load ptr, ptr %2, align 8
  %4 = call noundef ptr @_ZNKSt12__shared_ptrIN4pkpy12NameDictImplIPNS0_8PyObjectEEELN9__gnu_cxx12_Lock_policyE2EE3getEv(ptr noundef nonnull align 8 dereferenceable(16) %3) #3
  ret ptr %4
}

; Function Attrs: mustprogress nounwind uwtable
define linkonce_odr noundef zeroext i1 @_ZNKSt12__shared_ptrIN4pkpy12NameDictImplIPNS0_8PyObjectEEELN9__gnu_cxx12_Lock_policyE2EEcvbEv(ptr noundef nonnull align 8 dereferenceable(16) %0) #6 comdat align 2 {
  %2 = alloca ptr, align 8
  store ptr %0, ptr %2, align 8
  %3 = load ptr, ptr %2, align 8
  %4 = getelementptr inbounds %"class.std::__shared_ptr.23", ptr %3, i32 0, i32 0
  %5 = load ptr, ptr %4, align 8
  %6 = icmp ne ptr %5, null
  ret i1 %6
}

; Function Attrs: mustprogress uwtable
define linkonce_odr noundef ptr @_ZNK4pkpy12NameDictImplIPNS_8PyObjectEE7try_getENS_7StrNameE(ptr noundef nonnull align 8 dereferenceable(88) %0, i16 %1) #4 comdat align 2 {
  %3 = alloca %"struct.pkpy::StrName", align 2
  %4 = alloca ptr, align 8
  %5 = alloca %"struct.pkpy::StrName", align 2
  %6 = alloca %"struct.pkpy::StrName", align 2
  %7 = getelementptr inbounds %"struct.pkpy::StrName", ptr %3, i32 0, i32 0
  store i16 %1, ptr %7, align 2
  store ptr %0, ptr %4, align 8
  %8 = load ptr, ptr %4, align 8
  %9 = call noundef zeroext i1 @_ZNK4pkpy12NameDictImplIPNS_8PyObjectEE8is_smallEv(ptr noundef nonnull align 8 dereferenceable(88) %8)
  br i1 %9, label %10, label %15

10:                                               ; preds = %2
  %11 = getelementptr inbounds %"struct.pkpy::NameDictImpl.28", ptr %8, i32 0, i32 0
  call void @llvm.memcpy.p0.p0.i64(ptr align 2 %5, ptr align 2 %3, i64 2, i1 false)
  %12 = getelementptr inbounds %"struct.pkpy::StrName", ptr %5, i32 0, i32 0
  %13 = load i16, ptr %12, align 2
  %14 = call noundef ptr @_ZNK4pkpy13SmallNameDictIPNS_8PyObjectEE7try_getENS_7StrNameE(ptr noundef nonnull align 8 dereferenceable(88) %11, i16 %13)
  br label %20

15:                                               ; preds = %2
  %16 = getelementptr inbounds %"struct.pkpy::NameDictImpl.28", ptr %8, i32 0, i32 0
  call void @llvm.memcpy.p0.p0.i64(ptr align 2 %6, ptr align 2 %3, i64 2, i1 false)
  %17 = getelementptr inbounds %"struct.pkpy::StrName", ptr %6, i32 0, i32 0
  %18 = load i16, ptr %17, align 2
  %19 = call noundef ptr @_ZNK4pkpy13LargeNameDictIPNS_8PyObjectEE7try_getENS_7StrNameE(ptr noundef nonnull align 8 dereferenceable(24) %16, i16 %18)
  br label %20

20:                                               ; preds = %15, %10
  %21 = phi ptr [ %14, %10 ], [ %19, %15 ]
  ret ptr %21
}

; Function Attrs: mustprogress nounwind uwtable
define linkonce_odr noundef ptr @_ZNKSt19__shared_ptr_accessIN4pkpy12NameDictImplIPNS0_8PyObjectEEELN9__gnu_cxx12_Lock_policyE2ELb0ELb0EEptEv(ptr noundef nonnull align 1 dereferenceable(1) %0) #6 comdat align 2 {
  %2 = alloca ptr, align 8
  store ptr %0, ptr %2, align 8
  %3 = load ptr, ptr %2, align 8
  %4 = call noundef ptr @_ZNKSt19__shared_ptr_accessIN4pkpy12NameDictImplIPNS0_8PyObjectEEELN9__gnu_cxx12_Lock_policyE2ELb0ELb0EE6_M_getEv(ptr noundef nonnull align 1 dereferenceable(1) %3) #3
  ret ptr %4
}

; Function Attrs: mustprogress nounwind uwtable
define linkonce_odr noundef zeroext i1 @_ZSteqIN4pkpy12NameDictImplIPNS0_8PyObjectEEEEbRKSt10shared_ptrIT_EDn(ptr noundef nonnull align 8 dereferenceable(16) %0, ptr %1) #6 comdat {
  %3 = alloca ptr, align 8
  %4 = alloca ptr, align 8
  store ptr %0, ptr %3, align 8
  store ptr %1, ptr %4, align 8
  %5 = load ptr, ptr %3, align 8
  %6 = call noundef zeroext i1 @_ZNKSt12__shared_ptrIN4pkpy12NameDictImplIPNS0_8PyObjectEEELN9__gnu_cxx12_Lock_policyE2EEcvbEv(ptr noundef nonnull align 8 dereferenceable(16) %5) #3
  %7 = xor i1 %6, true
  ret i1 %7
}

; Function Attrs: mustprogress uwtable
define noundef ptr @_ZN4pkpy5Frame17f_closure_try_getENS_7StrNameE(ptr noundef nonnull align 8 dereferenceable(56) %0, i16 %1) #4 align 2 {
  %3 = alloca ptr, align 8
  %4 = alloca %"struct.pkpy::StrName", align 2
  %5 = alloca ptr, align 8
  %6 = alloca ptr, align 8
  %7 = alloca %"struct.pkpy::StrName", align 2
  %8 = getelementptr inbounds %"struct.pkpy::StrName", ptr %4, i32 0, i32 0
  store i16 %1, ptr %8, align 2
  store ptr %0, ptr %5, align 8
  %9 = load ptr, ptr %5, align 8
  %10 = getelementptr inbounds %"struct.pkpy::Frame", ptr %9, i32 0, i32 5
  %11 = load ptr, ptr %10, align 8
  %12 = icmp eq ptr %11, null
  br i1 %12, label %13, label %14

13:                                               ; preds = %2
  store ptr null, ptr %3, align 8
  br label %29

14:                                               ; preds = %2
  %15 = getelementptr inbounds %"struct.pkpy::Frame", ptr %9, i32 0, i32 5
  %16 = load ptr, ptr %15, align 8
  %17 = getelementptr inbounds %"struct.pkpy::Py_", ptr %16, i32 0, i32 1
  store ptr %17, ptr %6, align 8
  %18 = load ptr, ptr %6, align 8
  %19 = getelementptr inbounds %"struct.pkpy::Function", ptr %18, i32 0, i32 3
  %20 = call noundef zeroext i1 @_ZSteqIN4pkpy12NameDictImplIPNS0_8PyObjectEEEEbRKSt10shared_ptrIT_EDn(ptr noundef nonnull align 8 dereferenceable(16) %19, ptr null) #3
  br i1 %20, label %21, label %22

21:                                               ; preds = %14
  store ptr null, ptr %3, align 8
  br label %29

22:                                               ; preds = %14
  %23 = load ptr, ptr %6, align 8
  %24 = getelementptr inbounds %"struct.pkpy::Function", ptr %23, i32 0, i32 3
  %25 = call noundef ptr @_ZNKSt19__shared_ptr_accessIN4pkpy12NameDictImplIPNS0_8PyObjectEEELN9__gnu_cxx12_Lock_policyE2ELb0ELb0EEptEv(ptr noundef nonnull align 1 dereferenceable(1) %24) #3
  call void @llvm.memcpy.p0.p0.i64(ptr align 2 %7, ptr align 2 %4, i64 2, i1 false)
  %26 = getelementptr inbounds %"struct.pkpy::StrName", ptr %7, i32 0, i32 0
  %27 = load i16, ptr %26, align 2
  %28 = call noundef ptr @_ZNK4pkpy12NameDictImplIPNS_8PyObjectEE7try_getENS_7StrNameE(ptr noundef nonnull align 8 dereferenceable(88) %25, i16 %27)
  store ptr %28, ptr %3, align 8
  br label %29

29:                                               ; preds = %22, %21, %13
  %30 = load ptr, ptr %3, align 8
  ret ptr %30
}