; Function Attrs: mustprogress nofree norecurse nosync nounwind willreturn memory(read, inaccessiblemem: none) uwtable
define noundef ptr @_ZN4pkpy5Frame17f_closure_try_getENS_7StrNameE(ptr noundef nonnull readonly align 8 captures(none) dereferenceable(56) %0, i16 %1) local_unnamed_addr #3 align 2 {
  %3 = getelementptr inbounds nuw i8, ptr %0, i64 32
  %4 = load ptr, ptr %3, align 8
  %5 = icmp eq ptr %4, null
  br i1 %5, label %_ZNK4pkpy12NameDictImplIPNS_8PyObjectEE7try_getENS_7StrNameE.exit, label %6

6:                                                ; preds = %2
  %7 = getelementptr inbounds nuw i8, ptr %4, i64 56
  %8 = load ptr, ptr %7, align 8
  %.not.i = icmp eq ptr %8, null
  br i1 %.not.i, label %_ZNK4pkpy12NameDictImplIPNS_8PyObjectEE7try_getENS_7StrNameE.exit, label %9

9:                                                ; preds = %6
  %10 = load i8, ptr %8, align 1
  %11 = trunc i8 %10 to i1
  br i1 %11, label %12, label %23

12:                                               ; preds = %9
  %13 = getelementptr inbounds nuw i8, ptr %8, i64 4
  br label %15

14:                                               ; preds = %15
  %indvars.iv.next.i.i = add nuw nsw i64 %indvars.iv.i.i, 1
  %exitcond.not.i.i = icmp eq i64 %indvars.iv.next.i.i, 8
  br i1 %exitcond.not.i.i, label %_ZNK4pkpy12NameDictImplIPNS_8PyObjectEE7try_getENS_7StrNameE.exit, label %15, !llvm.loop !12

15:                                               ; preds = %14, %12
  %indvars.iv.i.i = phi i64 [ 0, %12 ], [ %indvars.iv.next.i.i, %14 ]
  %16 = getelementptr inbounds nuw [8 x %"struct.pkpy::StrName"], ptr %13, i64 0, i64 %indvars.iv.i.i
  %17 = load i16, ptr %16, align 2
  %18 = icmp eq i16 %17, %1
  br i1 %18, label %19, label %14

19:                                               ; preds = %15
  %20 = getelementptr inbounds nuw i8, ptr %8, i64 24
  %21 = getelementptr inbounds nuw [8 x ptr], ptr %20, i64 0, i64 %indvars.iv.i.i
  %22 = load ptr, ptr %21, align 8
  br label %_ZNK4pkpy12NameDictImplIPNS_8PyObjectEE7try_getENS_7StrNameE.exit

23:                                               ; preds = %9
  %24 = getelementptr inbounds nuw i8, ptr %8, i64 14
  %25 = load i16, ptr %24, align 2
  %26 = getelementptr inbounds nuw i8, ptr %8, i64 16
  %27 = load ptr, ptr %26, align 8
  %.011.i.i = and i16 %25, %1
  %28 = zext i16 %.011.i.i to i64
  %29 = getelementptr inbounds nuw %"struct.pkpy::NameDictItem.42", ptr %27, i64 %28
  %30 = load i16, ptr %29, align 2
  %31 = icmp eq i16 %30, 0
  br i1 %31, label %_ZNK4pkpy12NameDictImplIPNS_8PyObjectEE7try_getENS_7StrNameE.exit, label %.lr.ph.i.preheader.i

.lr.ph.i.preheader.i:                             ; preds = %23
  %32 = icmp eq i16 %30, %1
  br i1 %32, label %.lr.ph.i._crit_edge.i, label %.lr.ph.i

.lr.ph.i:                                         ; preds = %.lr.ph.i.preheader.i, %.lr.ph.i.i
  %.012.i7.i = phi i16 [ %.0.i.i, %.lr.ph.i.i ], [ %.011.i.i, %.lr.ph.i.preheader.i ]
  %33 = add i16 %.012.i7.i, 1
  %.0.i.i = and i16 %33, %25
  %34 = zext i16 %.0.i.i to i64
  %35 = getelementptr inbounds nuw %"struct.pkpy::NameDictItem.42", ptr %27, i64 %34
  %36 = load i16, ptr %35, align 2
  %37 = icmp eq i16 %36, 0
  br i1 %37, label %_ZNK4pkpy12NameDictImplIPNS_8PyObjectEE7try_getENS_7StrNameE.exit, label %.lr.ph.i.i, !llvm.loop !13

.lr.ph.i.i:                                       ; preds = %.lr.ph.i
  %38 = icmp eq i16 %36, %1
  br i1 %38, label %.lr.ph.i._crit_edge.i, label %.lr.ph.i, !llvm.loop !13

.lr.ph.i._crit_edge.i:                            ; preds = %.lr.ph.i.i, %.lr.ph.i.preheader.i
  %.lcssa.i = phi i64 [ %28, %.lr.ph.i.preheader.i ], [ %34, %.lr.ph.i.i ]
  %39 = getelementptr inbounds nuw %"struct.pkpy::NameDictItem.42", ptr %27, i64 %.lcssa.i, i32 1
  %40 = load ptr, ptr %39, align 8
  br label %_ZNK4pkpy12NameDictImplIPNS_8PyObjectEE7try_getENS_7StrNameE.exit

_ZNK4pkpy12NameDictImplIPNS_8PyObjectEE7try_getENS_7StrNameE.exit: ; preds = %.lr.ph.i, %14, %.lr.ph.i._crit_edge.i, %23, %19, %6, %2
  %.0 = phi ptr [ null, %2 ], [ null, %6 ], [ %22, %19 ], [ %40, %.lr.ph.i._crit_edge.i ], [ null, %23 ], [ null, %14 ], [ null, %.lr.ph.i ]
  ret ptr %.0
}